target datalayout = "e-m:e-p270:32:32-p271:32:32-p272:64:64-i64:64-i128:128-f80:128-n8:16:32:64-S128"
target triple = "x86_64-pc-linux-gnu"

%"class.gmx::AtomsBuilder" = type { ptr, ptr, i32, i32, i32, i32 }
%struct.t_atoms = type { i32, ptr, ptr, ptr, ptr, i32, ptr, ptr, i8, i8, i8, i8, i8 }
%struct.t_resinfo = type { ptr, i32, i8, i32, i8, ptr }

; Function Attrs: mustprogress nounwind uwtable
define void @_ZN3gmx12AtomsBuilderC2EP7t_atomsP8t_symtab(ptr noundef nonnull align 8 dereferenceable(32) %0, ptr noundef %1, ptr noundef %2) unnamed_addr #0 align 2 {
  %4 = alloca ptr, align 8
  %5 = alloca ptr, align 8
  %6 = alloca ptr, align 8
  store ptr %0, ptr %4, align 8, !tbaa !4
  store ptr %1, ptr %5, align 8, !tbaa !9
  store ptr %2, ptr %6, align 8, !tbaa !11
  %7 = load ptr, ptr %4, align 8
  %8 = getelementptr inbounds nuw %"class.gmx::AtomsBuilder", ptr %7, i32 0, i32 0
  %9 = load ptr, ptr %5, align 8, !tbaa !9
  store ptr %9, ptr %8, align 8, !tbaa !13
  %10 = getelementptr inbounds nuw %"class.gmx::AtomsBuilder", ptr %7, i32 0, i32 1
  %11 = load ptr, ptr %6, align 8, !tbaa !11
  store ptr %11, ptr %10, align 8, !tbaa !16
  %12 = getelementptr inbounds nuw %"class.gmx::AtomsBuilder", ptr %7, i32 0, i32 2
  %13 = load ptr, ptr %5, align 8, !tbaa !9
  %14 = getelementptr inbounds nuw %struct.t_atoms, ptr %13, i32 0, i32 0
  %15 = load i32, ptr %14, align 8, !tbaa !17
  store i32 %15, ptr %12, align 8, !tbaa !26
  %16 = getelementptr inbounds nuw %"class.gmx::AtomsBuilder", ptr %7, i32 0, i32 3
  %17 = load ptr, ptr %5, align 8, !tbaa !9
  %18 = getelementptr inbounds nuw %struct.t_atoms, ptr %17, i32 0, i32 5
  %19 = load i32, ptr %18, align 8, !tbaa !27
  store i32 %19, ptr %16, align 4, !tbaa !28
  %20 = getelementptr inbounds nuw %"class.gmx::AtomsBuilder", ptr %7, i32 0, i32 4
  %21 = load ptr, ptr %5, align 8, !tbaa !9
  %22 = getelementptr inbounds nuw %struct.t_atoms, ptr %21, i32 0, i32 5
  %23 = load i32, ptr %22, align 8, !tbaa !27
  store i32 %23, ptr %20, align 8, !tbaa !29
  %24 = getelementptr inbounds nuw %"class.gmx::AtomsBuilder", ptr %7, i32 0, i32 5
  store i32 -1, ptr %24, align 4, !tbaa !30
  %25 = load ptr, ptr %5, align 8, !tbaa !9
  %26 = getelementptr inbounds nuw %struct.t_atoms, ptr %25, i32 0, i32 5
  %27 = load i32, ptr %26, align 8, !tbaa !27
  %28 = icmp sgt i32 %27, 0
  br i1 %28, label %29, label %43

29:                                               ; preds = %3
  %30 = load ptr, ptr %5, align 8, !tbaa !9
  %31 = getelementptr inbounds nuw %struct.t_atoms, ptr %30, i32 0, i32 6
  %32 = load ptr, ptr %31, align 8, !tbaa !31
  %33 = load ptr, ptr %5, align 8, !tbaa !9
  %34 = getelementptr inbounds nuw %struct.t_atoms, ptr %33, i32 0, i32 5
  %35 = load i32, ptr %34, align 8, !tbaa !27
  %36 = sub nsw i32 %35, 1
  %37 = sext i32 %36 to i64
  %38 = getelementptr inbounds %struct.t_resinfo, ptr %32, i64 %37
  %39 = getelementptr inbounds nuw %struct.t_resinfo, ptr %38, i32 0, i32 1
  %40 = load i32, ptr %39, align 8, !tbaa !32
  %41 = add nsw i32 %40, 1
  %42 = getelementptr inbounds nuw %"class.gmx::AtomsBuilder", ptr %7, i32 0, i32 5
  store i32 %41, ptr %42, align 4, !tbaa !30
  br label %43

43:                                               ; preds = %29, %3
  ret void
}