; Function Attrs: mustprogress nofree norecurse nosync nounwind willreturn memory(read, argmem: readwrite, inaccessiblemem: none) uwtable
define void @_ZN3gmx12AtomsBuilderC2EP7t_atomsP8t_symtab(ptr noundef nonnull writeonly align 8 captures(none) dereferenceable(32) initializes((0, 32)) %0, ptr noundef %1, ptr noundef %2) unnamed_addr #0 align 2 {
  store ptr %1, ptr %0, align 8, !tbaa !4
  %4 = getelementptr inbounds nuw i8, ptr %0, i64 8
  store ptr %2, ptr %4, align 8, !tbaa !12
  %5 = getelementptr inbounds nuw i8, ptr %0, i64 16
  %6 = load i32, ptr %1, align 8, !tbaa !13
  store i32 %6, ptr %5, align 8, !tbaa !22
  %7 = getelementptr inbounds nuw i8, ptr %0, i64 20
  %8 = getelementptr inbounds nuw i8, ptr %1, i64 40
  %9 = load i32, ptr %8, align 8, !tbaa !23
  store i32 %9, ptr %7, align 4, !tbaa !24
  %10 = getelementptr inbounds nuw i8, ptr %0, i64 24
  store i32 %9, ptr %10, align 8, !tbaa !25
  %11 = getelementptr inbounds nuw i8, ptr %0, i64 28
  store i32 -1, ptr %11, align 4, !tbaa !26
  %12 = icmp sgt i32 %9, 0
  br i1 %12, label %13, label %21

13:                                               ; preds = %3
  %14 = getelementptr inbounds nuw i8, ptr %1, i64 48
  %15 = load ptr, ptr %14, align 8, !tbaa !27
  %16 = zext nneg i32 %9 to i64
  %17 = getelementptr %struct.t_resinfo, ptr %15, i64 %16
  %18 = getelementptr i8, ptr %17, i64 -24
  %19 = load i32, ptr %18, align 8, !tbaa !28
  %20 = add nsw i32 %19, 1
  store i32 %20, ptr %11, align 4, !tbaa !26
  br label %21

21:                                               ; preds = %13, %3
  ret void
}